target datalayout = "e-m:e-p270:32:32-p271:32:32-p272:64:64-i64:64-i128:128-f80:128-n8:16:32:64-S128"
target triple = "x86_64-pc-linux-gnu"

%struct.AVFormatContext = type { ptr, ptr, ptr, ptr, ptr, i32, i32, ptr, i32, ptr, i32, ptr, ptr, i64, i64, i64, i32, i32, i32, i64, i64, ptr, i32, i32, ptr, i32, i32, i32, i32, ptr, i64, i32, i32, %struct.AVIOInterruptCB, i32, i32, i32, i32, i64, i32, i32, i32, i32, i32, i32, i32, i32, i32, i32, i32, i32, i64, i32, i32, i32, i32, i32, ptr, ptr, ptr, ptr, i32, ptr, ptr, ptr, ptr, i32, ptr, ptr, i64, ptr, ptr, ptr, i64 }
%struct.AVIOInterruptCB = type { ptr, ptr }
%struct.AVStream = type { ptr, i32, i32, ptr, ptr, %struct.AVRational, i64, i64, i64, i32, i32, %struct.AVRational, ptr, %struct.AVRational, %struct.AVPacket, i32, %struct.AVRational, i32 }
%struct.AVPacket = type { ptr, i64, i64, ptr, i32, i32, i32, ptr, i32, i64, i64, ptr, ptr, %struct.AVRational }
%struct.AVRational = type { i32, i32 }
%struct.WsVqaDemuxContext = type { i32, i32, i32, i32, i32, i32, i64, i32 }
%struct.AVCodecParameters = type { i32, i32, i32, ptr, i32, ptr, i32, i32, i64, i32, i32, i32, i32, i32, i32, %struct.AVRational, %struct.AVRational, i32, i32, i32, i32, i32, i32, i32, %struct.AVChannelLayout, i32, i32, i32, i32, i32, i32 }
%struct.AVChannelLayout = type { i32, i32, %union.anon, ptr }
%union.anon = type { i64 }

@.str.2 = private unnamed_addr constant [17 x i8] c"invalid fps: %d\0A\00", align 1
@.str.3 = private unnamed_addr constant [32 x i8] c" note: unknown chunk seen (%s)\0A\00", align 1

; Function Attrs: alwaysinline nounwind willreturn memory(none) uwtable
define internal i32 @av_bswap32(i32 noundef %0) #1 {
  %2 = alloca i32, align 4
  store i32 %0, ptr %2, align 4, !tbaa !54
  %3 = load i32, ptr %2, align 4, !tbaa !54
  %4 = shl i32 %3, 8
  %5 = and i32 %4, 65280
  %6 = load i32, ptr %2, align 4, !tbaa !54
  %7 = lshr i32 %6, 8
  %8 = and i32 %7, 255
  %9 = or i32 %5, %8
  %10 = shl i32 %9, 16
  %11 = load i32, ptr %2, align 4, !tbaa !54
  %12 = lshr i32 %11, 16
  %13 = shl i32 %12, 8
  %14 = and i32 %13, 65280
  %15 = load i32, ptr %2, align 4, !tbaa !54
  %16 = lshr i32 %15, 16
  %17 = lshr i32 %16, 8
  %18 = and i32 %17, 255
  %19 = or i32 %14, %18
  %20 = or i32 %10, %19
  ret i32 %20
}

; Function Attrs: nounwind uwtable
define internal i32 @wsvqa_read_header(ptr noundef %0) #0 {
  %2 = alloca i32, align 4
  %3 = alloca ptr, align 8
  %4 = alloca ptr, align 8
  %5 = alloca ptr, align 8
  %6 = alloca ptr, align 8
  %7 = alloca ptr, align 8
  %8 = alloca [8 x i8], align 1
  %9 = alloca i32, align 4
  %10 = alloca i32, align 4
  %11 = alloca i32, align 4
  %12 = alloca i32, align 4
  %13 = alloca i32, align 4
  %14 = alloca [32 x i8], align 1
  store ptr %0, ptr %3, align 8, !tbaa !15
  call void @llvm.lifetime.start.p0(i64 8, ptr %4) #7
  %15 = load ptr, ptr %3, align 8, !tbaa !15
  %16 = getelementptr inbounds nuw %struct.AVFormatContext, ptr %15, i32 0, i32 3
  %17 = load ptr, ptr %16, align 8, !tbaa !17
  store ptr %17, ptr %4, align 8, !tbaa !32
  call void @llvm.lifetime.start.p0(i64 8, ptr %5) #7
  %18 = load ptr, ptr %3, align 8, !tbaa !15
  %19 = getelementptr inbounds nuw %struct.AVFormatContext, ptr %18, i32 0, i32 4
  %20 = load ptr, ptr %19, align 8, !tbaa !34
  store ptr %20, ptr %5, align 8, !tbaa !35
  call void @llvm.lifetime.start.p0(i64 8, ptr %6) #7
  call void @llvm.lifetime.start.p0(i64 8, ptr %7) #7
  call void @llvm.lifetime.start.p0(i64 8, ptr %8) #7
  call void @llvm.lifetime.start.p0(i64 4, ptr %9) #7
  call void @llvm.lifetime.start.p0(i64 4, ptr %10) #7
  call void @llvm.lifetime.start.p0(i64 4, ptr %11) #7
  call void @llvm.lifetime.start.p0(i64 4, ptr %12) #7
  %21 = load ptr, ptr %3, align 8, !tbaa !15
  %22 = call ptr @avformat_new_stream(ptr noundef %21, ptr noundef null)
  store ptr %22, ptr %6, align 8, !tbaa !36
  %23 = load ptr, ptr %6, align 8, !tbaa !36
  %24 = icmp ne ptr %23, null
  br i1 %24, label %26, label %25

25:                                               ; preds = %1
  store i32 -12, ptr %2, align 4
  store i32 1, ptr %13, align 4
  br label %165

26:                                               ; preds = %1
  %27 = load ptr, ptr %6, align 8, !tbaa !36
  %28 = getelementptr inbounds nuw %struct.AVStream, ptr %27, i32 0, i32 6
  store i64 0, ptr %28, align 8, !tbaa !38
  %29 = load ptr, ptr %6, align 8, !tbaa !36
  %30 = getelementptr inbounds nuw %struct.AVStream, ptr %29, i32 0, i32 1
  %31 = load i32, ptr %30, align 8, !tbaa !45
  %32 = load ptr, ptr %4, align 8, !tbaa !32
  %33 = getelementptr inbounds nuw %struct.WsVqaDemuxContext, ptr %32, i32 0, i32 5
  store i32 %31, ptr %33, align 4, !tbaa !46
  %34 = load ptr, ptr %6, align 8, !tbaa !36
  %35 = getelementptr inbounds nuw %struct.AVStream, ptr %34, i32 0, i32 3
  %36 = load ptr, ptr %35, align 8, !tbaa !48
  %37 = getelementptr inbounds nuw %struct.AVCodecParameters, ptr %36, i32 0, i32 0
  store i32 0, ptr %37, align 8, !tbaa !49
  %38 = load ptr, ptr %6, align 8, !tbaa !36
  %39 = getelementptr inbounds nuw %struct.AVStream, ptr %38, i32 0, i32 3
  %40 = load ptr, ptr %39, align 8, !tbaa !48
  %41 = getelementptr inbounds nuw %struct.AVCodecParameters, ptr %40, i32 0, i32 1
  store i32 44, ptr %41, align 4, !tbaa !52
  %42 = load ptr, ptr %6, align 8, !tbaa !36
  %43 = getelementptr inbounds nuw %struct.AVStream, ptr %42, i32 0, i32 3
  %44 = load ptr, ptr %43, align 8, !tbaa !48
  %45 = getelementptr inbounds nuw %struct.AVCodecParameters, ptr %44, i32 0, i32 2
  store i32 0, ptr %45, align 8, !tbaa !53
  %46 = load ptr, ptr %5, align 8, !tbaa !35
  %47 = call i64 @avio_seek(ptr noundef %46, i64 noundef 20, i32 noundef 0)
  %48 = load ptr, ptr %3, align 8, !tbaa !15
  %49 = load ptr, ptr %6, align 8, !tbaa !36
  %50 = getelementptr inbounds nuw %struct.AVStream, ptr %49, i32 0, i32 3
  %51 = load ptr, ptr %50, align 8, !tbaa !48
  %52 = load ptr, ptr %5, align 8, !tbaa !35
  %53 = call i32 @ff_get_extradata(ptr noundef %48, ptr noundef %51, ptr noundef %52, i32 noundef 42)
  store i32 %53, ptr %12, align 4, !tbaa !54
  %54 = icmp slt i32 %53, 0
  br i1 %54, label %55, label %57

55:                                               ; preds = %26
  %56 = load i32, ptr %12, align 4, !tbaa !54
  store i32 %56, ptr %2, align 4
  store i32 1, ptr %13, align 4
  br label %165

57:                                               ; preds = %26
  %58 = load ptr, ptr %6, align 8, !tbaa !36
  %59 = getelementptr inbounds nuw %struct.AVStream, ptr %58, i32 0, i32 3
  %60 = load ptr, ptr %59, align 8, !tbaa !48
  %61 = getelementptr inbounds nuw %struct.AVCodecParameters, ptr %60, i32 0, i32 3
  %62 = load ptr, ptr %61, align 8, !tbaa !55
  store ptr %62, ptr %7, align 8, !tbaa !56
  %63 = load ptr, ptr %7, align 8, !tbaa !56
  %64 = getelementptr inbounds i8, ptr %63, i64 6
  %65 = load i16, ptr %64, align 1, !tbaa !14
  %66 = zext i16 %65 to i32
  %67 = load ptr, ptr %6, align 8, !tbaa !36
  %68 = getelementptr inbounds nuw %struct.AVStream, ptr %67, i32 0, i32 3
  %69 = load ptr, ptr %68, align 8, !tbaa !48
  %70 = getelementptr inbounds nuw %struct.AVCodecParameters, ptr %69, i32 0, i32 13
  store i32 %66, ptr %70, align 8, !tbaa !57
  %71 = load ptr, ptr %7, align 8, !tbaa !56
  %72 = getelementptr inbounds i8, ptr %71, i64 8
  %73 = load i16, ptr %72, align 1, !tbaa !14
  %74 = zext i16 %73 to i32
  %75 = load ptr, ptr %6, align 8, !tbaa !36
  %76 = getelementptr inbounds nuw %struct.AVStream, ptr %75, i32 0, i32 3
  %77 = load ptr, ptr %76, align 8, !tbaa !48
  %78 = getelementptr inbounds nuw %struct.AVCodecParameters, ptr %77, i32 0, i32 14
  store i32 %74, ptr %78, align 4, !tbaa !58
  %79 = load ptr, ptr %7, align 8, !tbaa !56
  %80 = getelementptr inbounds i8, ptr %79, i64 12
  %81 = load i8, ptr %80, align 1, !tbaa !14
  %82 = zext i8 %81 to i32
  store i32 %82, ptr %11, align 4, !tbaa !54
  %83 = load ptr, ptr %7, align 8, !tbaa !56
  %84 = getelementptr inbounds i8, ptr %83, i64 4
  %85 = load i16, ptr %84, align 1, !tbaa !14
  %86 = zext i16 %85 to i64
  %87 = load ptr, ptr %6, align 8, !tbaa !36
  %88 = getelementptr inbounds nuw %struct.AVStream, ptr %87, i32 0, i32 7
  store i64 %86, ptr %88, align 8, !tbaa !59
  %89 = load ptr, ptr %6, align 8, !tbaa !36
  %90 = getelementptr inbounds nuw %struct.AVStream, ptr %89, i32 0, i32 8
  store i64 %86, ptr %90, align 8, !tbaa !60
  %91 = load i32, ptr %11, align 4, !tbaa !54
  %92 = icmp slt i32 %91, 1
  br i1 %92, label %96, label %93

93:                                               ; preds = %57
  %94 = load i32, ptr %11, align 4, !tbaa !54
  %95 = icmp sgt i32 %94, 30
  br i1 %95, label %96, label %99

96:                                               ; preds = %93, %57
  %97 = load ptr, ptr %3, align 8, !tbaa !15
  %98 = load i32, ptr %11, align 4, !tbaa !54
  call void (ptr, i32, ptr, ...) @av_log(ptr noundef %97, i32 noundef 16, ptr noundef @.str.2, i32 noundef %98)
  store i32 -1094995529, ptr %2, align 4
  store i32 1, ptr %13, align 4
  br label %165

99:                                               ; preds = %93
  %100 = load ptr, ptr %6, align 8, !tbaa !36
  %101 = load i32, ptr %11, align 4, !tbaa !54
  call void @avpriv_set_pts_info(ptr noundef %100, i32 noundef 64, i32 noundef 1, i32 noundef %101)
  %102 = load ptr, ptr %7, align 8, !tbaa !56
  %103 = getelementptr inbounds i8, ptr %102, i64 0
  %104 = load i16, ptr %103, align 1, !tbaa !14
  %105 = zext i16 %104 to i32
  %106 = load ptr, ptr %4, align 8, !tbaa !32
  %107 = getelementptr inbounds nuw %struct.WsVqaDemuxContext, ptr %106, i32 0, i32 0
  store i32 %105, ptr %107, align 8, !tbaa !61
  %108 = load ptr, ptr %7, align 8, !tbaa !56
  %109 = getelementptr inbounds i8, ptr %108, i64 24
  %110 = load i16, ptr %109, align 1, !tbaa !14
  %111 = zext i16 %110 to i32
  %112 = load ptr, ptr %4, align 8, !tbaa !32
  %113 = getelementptr inbounds nuw %struct.WsVqaDemuxContext, ptr %112, i32 0, i32 3
  store i32 %111, ptr %113, align 4, !tbaa !62
  %114 = load ptr, ptr %7, align 8, !tbaa !56
  %115 = getelementptr inbounds i8, ptr %114, i64 26
  %116 = load i8, ptr %115, align 1, !tbaa !14
  %117 = zext i8 %116 to i32
  %118 = load ptr, ptr %4, align 8, !tbaa !32
  %119 = getelementptr inbounds nuw %struct.WsVqaDemuxContext, ptr %118, i32 0, i32 2
  store i32 %117, ptr %119, align 8, !tbaa !63
  %120 = load ptr, ptr %7, align 8, !tbaa !56
  %121 = getelementptr inbounds i8, ptr %120, i64 27
  %122 = load i8, ptr %121, align 1, !tbaa !14
  %123 = zext i8 %122 to i32
  %124 = load ptr, ptr %4, align 8, !tbaa !32
  %125 = getelementptr inbounds nuw %struct.WsVqaDemuxContext, ptr %124, i32 0, i32 1
  store i32 %123, ptr %125, align 4, !tbaa !64
  %126 = load ptr, ptr %4, align 8, !tbaa !32
  %127 = getelementptr inbounds nuw %struct.WsVqaDemuxContext, ptr %126, i32 0, i32 4
  store i32 -1, ptr %127, align 8, !tbaa !65
  %128 = load ptr, ptr %4, align 8, !tbaa !32
  %129 = getelementptr inbounds nuw %struct.WsVqaDemuxContext, ptr %128, i32 0, i32 6
  store i64 0, ptr %129, align 8, !tbaa !66
  %130 = load ptr, ptr %4, align 8, !tbaa !32
  %131 = getelementptr inbounds nuw %struct.WsVqaDemuxContext, ptr %130, i32 0, i32 7
  store i32 0, ptr %131, align 8, !tbaa !67
  %132 = load ptr, ptr %3, align 8, !tbaa !15
  %133 = getelementptr inbounds nuw %struct.AVFormatContext, ptr %132, i32 0, i32 5
  %134 = load i32, ptr %133, align 8, !tbaa !68
  %135 = or i32 %134, 1
  store i32 %135, ptr %133, align 8, !tbaa !68
  br label %136

136:                                              ; preds = %161, %99
  %137 = load ptr, ptr %5, align 8, !tbaa !35
  %138 = getelementptr inbounds [8 x i8], ptr %8, i64 0, i64 0
  %139 = call i32 @avio_read(ptr noundef %137, ptr noundef %138, i32 noundef 8)
  %140 = icmp ne i32 %139, 8
  br i1 %140, label %141, label %142

141:                                              ; preds = %136
  store i32 -5, ptr %2, align 4
  store i32 1, ptr %13, align 4
  br label %165

142:                                              ; preds = %136
  %143 = getelementptr inbounds [8 x i8], ptr %8, i64 0, i64 0
  %144 = load i32, ptr %143, align 1, !tbaa !14
  %145 = call i32 @av_bswap32(i32 noundef %144) #6
  store i32 %145, ptr %9, align 4, !tbaa !54
  %146 = getelementptr inbounds [8 x i8], ptr %8, i64 0, i64 4
  %147 = load i32, ptr %146, align 1, !tbaa !14
  %148 = call i32 @av_bswap32(i32 noundef %147) #6
  store i32 %148, ptr %10, align 4, !tbaa !54
  %149 = load i32, ptr %9, align 4, !tbaa !54
  switch i32 %149, label %151 [
    i32 1128877638, label %150
    i32 1128877640, label %150
    i32 1128877636, label %150
    i32 1279872582, label %150
    i32 1346981446, label %150
    i32 1346981448, label %150
    i32 1346981444, label %150
    i32 1179209286, label %150
    i32 1129137235, label %150
    i32 1447642455, label %150
    i32 1514296646, label %150
  ]

150:                                              ; preds = %142, %142, %142, %142, %142, %142, %142, %142, %142, %142, %142
  br label %156

151:                                              ; preds = %142
  %152 = load ptr, ptr %3, align 8, !tbaa !15
  call void @llvm.memset.p0.i64(ptr align 1 %14, i8 0, i64 32, i1 false)
  %153 = getelementptr inbounds [32 x i8], ptr %14, i64 0, i64 0
  %154 = load i32, ptr %9, align 4, !tbaa !54
  %155 = call ptr @av_fourcc_make_string(ptr noundef %153, i32 noundef %154)
  call void (ptr, i32, ptr, ...) @av_log(ptr noundef %152, i32 noundef 16, ptr noundef @.str.3, ptr noundef %155)
  br label %156

156:                                              ; preds = %151, %150
  %157 = load ptr, ptr %5, align 8, !tbaa !35
  %158 = load i32, ptr %10, align 4, !tbaa !54
  %159 = zext i32 %158 to i64
  %160 = call i64 @avio_skip(ptr noundef %157, i64 noundef %159)
  br label %161

161:                                              ; preds = %156
  %162 = load i32, ptr %9, align 4, !tbaa !54
  %163 = icmp ne i32 %162, 1179209286
  br i1 %163, label %136, label %164, !llvm.loop !69

164:                                              ; preds = %161
  store i32 0, ptr %2, align 4
  store i32 1, ptr %13, align 4
  br label %165

165:                                              ; preds = %164, %141, %96, %55, %25
  call void @llvm.lifetime.end.p0(i64 4, ptr %12) #7
  call void @llvm.lifetime.end.p0(i64 4, ptr %11) #7
  call void @llvm.lifetime.end.p0(i64 4, ptr %10) #7
  call void @llvm.lifetime.end.p0(i64 4, ptr %9) #7
  call void @llvm.lifetime.end.p0(i64 8, ptr %8) #7
  call void @llvm.lifetime.end.p0(i64 8, ptr %7) #7
  call void @llvm.lifetime.end.p0(i64 8, ptr %6) #7
  call void @llvm.lifetime.end.p0(i64 8, ptr %5) #7
  call void @llvm.lifetime.end.p0(i64 8, ptr %4) #7
  %166 = load i32, ptr %2, align 4
  ret i32 %166
}