; Function Attrs: nounwind uwtable
define internal range(i32 -2147483648, 1) i32 @wsvqa_read_header(ptr noundef %0) #1 {
  %2 = alloca [8 x i8], align 4
  %3 = alloca [32 x i8], align 1
  %4 = getelementptr inbounds nuw i8, ptr %0, i64 24
  %5 = load ptr, ptr %4, align 8, !tbaa !13
  %6 = getelementptr inbounds nuw i8, ptr %0, i64 32
  %7 = load ptr, ptr %6, align 8, !tbaa !28
  call void @llvm.lifetime.start.p0(i64 8, ptr nonnull %2) #6
  %8 = tail call ptr @avformat_new_stream(ptr noundef %0, ptr noundef null) #6
  %.not = icmp eq ptr %8, null
  br i1 %.not, label %.loopexit, label %9

9:                                                ; preds = %1
  %10 = getelementptr inbounds nuw i8, ptr %8, i64 40
  store i64 0, ptr %10, align 8, !tbaa !29
  %11 = getelementptr inbounds nuw i8, ptr %8, i64 8
  %12 = load i32, ptr %11, align 8, !tbaa !36
  %13 = getelementptr inbounds nuw i8, ptr %5, i64 20
  store i32 %12, ptr %13, align 4, !tbaa !37
  %14 = getelementptr inbounds nuw i8, ptr %8, i64 16
  %15 = load ptr, ptr %14, align 8, !tbaa !39
  store i32 0, ptr %15, align 8, !tbaa !40
  %16 = getelementptr inbounds nuw i8, ptr %15, i64 4
  store i32 44, ptr %16, align 4, !tbaa !43
  %17 = getelementptr inbounds nuw i8, ptr %15, i64 8
  store i32 0, ptr %17, align 8, !tbaa !44
  %18 = tail call i64 @avio_seek(ptr noundef %7, i64 noundef 20, i32 noundef 0) #6
  %19 = load ptr, ptr %14, align 8, !tbaa !39
  %20 = tail call i32 @ff_get_extradata(ptr noundef nonnull %0, ptr noundef %19, ptr noundef %7, i32 noundef 42) #6
  %21 = icmp slt i32 %20, 0
  br i1 %21, label %.loopexit, label %22

22:                                               ; preds = %9
  %23 = load ptr, ptr %14, align 8, !tbaa !39
  %24 = getelementptr inbounds nuw i8, ptr %23, i64 16
  %25 = load ptr, ptr %24, align 8, !tbaa !45
  %26 = getelementptr inbounds nuw i8, ptr %25, i64 6
  %27 = load i16, ptr %26, align 1, !tbaa !12
  %28 = zext i16 %27 to i32
  %29 = getelementptr inbounds nuw i8, ptr %23, i64 72
  store i32 %28, ptr %29, align 8, !tbaa !46
  %30 = getelementptr inbounds nuw i8, ptr %25, i64 8
  %31 = load i16, ptr %30, align 1, !tbaa !12
  %32 = zext i16 %31 to i32
  %33 = getelementptr inbounds nuw i8, ptr %23, i64 76
  store i32 %32, ptr %33, align 4, !tbaa !47
  %34 = getelementptr inbounds nuw i8, ptr %25, i64 12
  %35 = load i8, ptr %34, align 1, !tbaa !12
  %36 = zext i8 %35 to i32
  %37 = getelementptr inbounds nuw i8, ptr %25, i64 4
  %38 = load i16, ptr %37, align 1, !tbaa !12
  %39 = zext i16 %38 to i64
  %40 = getelementptr inbounds nuw i8, ptr %8, i64 48
  store i64 %39, ptr %40, align 8, !tbaa !48
  %41 = getelementptr inbounds nuw i8, ptr %8, i64 56
  store i64 %39, ptr %41, align 8, !tbaa !49
  %42 = add i8 %35, -31
  %or.cond = icmp ult i8 %42, -30
  br i1 %or.cond, label %43, label %44

43:                                               ; preds = %22
  tail call void (ptr, i32, ptr, ...) @av_log(ptr noundef nonnull %0, i32 noundef 16, ptr noundef nonnull @.str.2, i32 noundef %36) #6
  br label %.loopexit

44:                                               ; preds = %22
  tail call void @avpriv_set_pts_info(ptr noundef nonnull %8, i32 noundef 64, i32 noundef 1, i32 noundef %36) #6
  %45 = load i16, ptr %25, align 1, !tbaa !12
  %46 = zext i16 %45 to i32
  store i32 %46, ptr %5, align 8, !tbaa !50
  %47 = getelementptr inbounds nuw i8, ptr %25, i64 24
  %48 = load i16, ptr %47, align 1, !tbaa !12
  %49 = zext i16 %48 to i32
  %50 = getelementptr inbounds nuw i8, ptr %5, i64 12
  store i32 %49, ptr %50, align 4, !tbaa !51
  %51 = getelementptr inbounds nuw i8, ptr %25, i64 26
  %52 = load i8, ptr %51, align 1, !tbaa !12
  %53 = zext i8 %52 to i32
  %54 = getelementptr inbounds nuw i8, ptr %5, i64 8
  store i32 %53, ptr %54, align 8, !tbaa !52
  %55 = getelementptr inbounds nuw i8, ptr %25, i64 27
  %56 = load i8, ptr %55, align 1, !tbaa !12
  %57 = zext i8 %56 to i32
  %58 = getelementptr inbounds nuw i8, ptr %5, i64 4
  store i32 %57, ptr %58, align 4, !tbaa !53
  %59 = getelementptr inbounds nuw i8, ptr %5, i64 16
  store i32 -1, ptr %59, align 8, !tbaa !54
  %60 = getelementptr inbounds nuw i8, ptr %5, i64 24
  store i64 0, ptr %60, align 8, !tbaa !55
  %61 = getelementptr inbounds nuw i8, ptr %5, i64 32
  store i32 0, ptr %61, align 8, !tbaa !56
  %62 = getelementptr inbounds nuw i8, ptr %0, i64 40
  %63 = load i32, ptr %62, align 8, !tbaa !57
  %64 = or i32 %63, 1
  store i32 %64, ptr %62, align 8, !tbaa !57
  %65 = getelementptr inbounds nuw i8, ptr %2, i64 4
  br label %66

66:                                               ; preds = %75, %44
  %67 = call i32 @avio_read(ptr noundef %7, ptr noundef nonnull %2, i32 noundef 8) #6
  %.not53 = icmp eq i32 %67, 8
  br i1 %.not53, label %68, label %.loopexit

68:                                               ; preds = %66
  %69 = load i32, ptr %2, align 4, !tbaa !12
  %70 = call i32 @llvm.bswap.i32(i32 %69)
  %71 = load i32, ptr %65, align 4, !tbaa !12
  %72 = call i32 @llvm.bswap.i32(i32 %71)
  switch i32 %70, label %73 [
    i32 1128877638, label %75
    i32 1128877640, label %75
    i32 1128877636, label %75
    i32 1279872582, label %75
    i32 1346981446, label %75
    i32 1346981448, label %75
    i32 1346981444, label %75
    i32 1179209286, label %75
    i32 1129137235, label %75
    i32 1447642455, label %75
    i32 1514296646, label %75
  ]

73:                                               ; preds = %68
  call void @llvm.memset.p0.i64(ptr noundef nonnull align 1 dereferenceable(32) %3, i8 0, i64 32, i1 false)
  %74 = call ptr @av_fourcc_make_string(ptr noundef nonnull %3, i32 noundef %70) #6
  call void (ptr, i32, ptr, ...) @av_log(ptr noundef nonnull %0, i32 noundef 16, ptr noundef nonnull @.str.3, ptr noundef %74) #6
  br label %75

75:                                               ; preds = %68, %68, %68, %68, %68, %68, %68, %68, %68, %68, %68, %73
  %76 = zext i32 %72 to i64
  %77 = call i64 @avio_skip(ptr noundef %7, i64 noundef %76) #6
  %.not54 = icmp eq i32 %69, 1179535686
  br i1 %.not54, label %.loopexit, label %66, !llvm.loop !58

.loopexit:                                        ; preds = %75, %66, %9, %1, %43
  %.0 = phi i32 [ -1094995529, %43 ], [ -12, %1 ], [ %20, %9 ], [ 0, %75 ], [ -5, %66 ]
  call void @llvm.lifetime.end.p0(i64 8, ptr nonnull %2) #6
  ret i32 %.0
}